target datalayout = "e-m:e-p270:32:32-p271:32:32-p272:64:64-i64:64-i128:128-f80:128-n8:16:32:64-S128"
target triple = "x86_64-pc-linux-gnu"

%struct._php_stream_bucket_brigade = type { ptr, ptr }
%struct._php_stream_bucket = type { ptr, ptr, ptr, ptr, i64, i8, i8, i32 }
%struct._php_stream_filter = type { ptr, %struct._zval_struct, ptr, ptr, i32, ptr, %struct._php_stream_bucket_brigade, ptr }
%struct._zval_struct = type { %union._zend_value, %union.anon, %union.anon.3 }
%union._zend_value = type { i64 }
%union.anon = type { i32 }
%union.anon.3 = type { i32 }
%struct._php_consumed_filter_data = type { i64, i64, i8 }

; Function Attrs: nounwind uwtable
define internal i32 @consumed_filter_filter(ptr noundef %0, ptr noundef %1, ptr noundef %2, ptr noundef %3, ptr noundef %4, i32 noundef %5) #0 {
  %7 = alloca ptr, align 8
  %8 = alloca ptr, align 8
  %9 = alloca ptr, align 8
  %10 = alloca ptr, align 8
  %11 = alloca ptr, align 8
  %12 = alloca i32, align 4
  %13 = alloca ptr, align 8
  %14 = alloca ptr, align 8
  %15 = alloca i64, align 8
  store ptr %0, ptr %7, align 8
  store ptr %1, ptr %8, align 8
  store ptr %2, ptr %9, align 8
  store ptr %3, ptr %10, align 8
  store ptr %4, ptr %11, align 8
  store i32 %5, ptr %12, align 4
  %16 = load ptr, ptr %8, align 8
  %17 = getelementptr inbounds %struct._php_stream_filter, ptr %16, i32 0, i32 1
  %18 = getelementptr inbounds %struct._zval_struct, ptr %17, i32 0, i32 0
  %19 = load ptr, ptr %18, align 8
  store ptr %19, ptr %13, align 8
  store i64 0, ptr %15, align 8
  %20 = load ptr, ptr %13, align 8
  %21 = getelementptr inbounds %struct._php_consumed_filter_data, ptr %20, i32 0, i32 1
  %22 = load i64, ptr %21, align 8
  %23 = icmp eq i64 %22, -1
  br i1 %23, label %24, label %29

24:                                               ; preds = %6
  %25 = load ptr, ptr %7, align 8
  %26 = call i64 @_php_stream_tell(ptr noundef %25)
  %27 = load ptr, ptr %13, align 8
  %28 = getelementptr inbounds %struct._php_consumed_filter_data, ptr %27, i32 0, i32 1
  store i64 %26, ptr %28, align 8
  br label %29

29:                                               ; preds = %24, %6
  br label %30

30:                                               ; preds = %35, %29
  %31 = load ptr, ptr %9, align 8
  %32 = getelementptr inbounds %struct._php_stream_bucket_brigade, ptr %31, i32 0, i32 0
  %33 = load ptr, ptr %32, align 8
  store ptr %33, ptr %14, align 8
  %34 = icmp ne ptr %33, null
  br i1 %34, label %35, label %44

35:                                               ; preds = %30
  %36 = load ptr, ptr %14, align 8
  call void @php_stream_bucket_unlink(ptr noundef %36)
  %37 = load ptr, ptr %14, align 8
  %38 = getelementptr inbounds %struct._php_stream_bucket, ptr %37, i32 0, i32 4
  %39 = load i64, ptr %38, align 8
  %40 = load i64, ptr %15, align 8
  %41 = add i64 %40, %39
  store i64 %41, ptr %15, align 8
  %42 = load ptr, ptr %10, align 8
  %43 = load ptr, ptr %14, align 8
  call void @php_stream_bucket_append(ptr noundef %42, ptr noundef %43)
  br label %30

44:                                               ; preds = %30
  %45 = load ptr, ptr %11, align 8
  %46 = icmp ne ptr %45, null
  br i1 %46, label %47, label %50

47:                                               ; preds = %44
  %48 = load i64, ptr %15, align 8
  %49 = load ptr, ptr %11, align 8
  store i64 %48, ptr %49, align 8
  br label %50

50:                                               ; preds = %47, %44
  %51 = load i32, ptr %12, align 4
  %52 = and i32 %51, 2
  %53 = icmp ne i32 %52, 0
  br i1 %53, label %54, label %64

54:                                               ; preds = %50
  %55 = load ptr, ptr %7, align 8
  %56 = load ptr, ptr %13, align 8
  %57 = getelementptr inbounds %struct._php_consumed_filter_data, ptr %56, i32 0, i32 1
  %58 = load i64, ptr %57, align 8
  %59 = load ptr, ptr %13, align 8
  %60 = getelementptr inbounds %struct._php_consumed_filter_data, ptr %59, i32 0, i32 0
  %61 = load i64, ptr %60, align 8
  %62 = add i64 %58, %61
  %63 = call i32 @_php_stream_seek(ptr noundef %55, i64 noundef %62, i32 noundef 0)
  br label %64

64:                                               ; preds = %54, %50
  %65 = load i64, ptr %15, align 8
  %66 = load ptr, ptr %13, align 8
  %67 = getelementptr inbounds %struct._php_consumed_filter_data, ptr %66, i32 0, i32 0
  %68 = load i64, ptr %67, align 8
  %69 = add i64 %68, %65
  store i64 %69, ptr %67, align 8
  ret i32 2
}