; Function Attrs: nounwind uwtable
define internal noundef i32 @consumed_filter_filter(ptr noundef %0, ptr nocapture noundef readonly %1, ptr nocapture noundef readonly %2, ptr noundef %3, ptr noundef writeonly %4, i32 noundef %5) #0 {
  %7 = getelementptr inbounds i8, ptr %1, i64 8
  %8 = load ptr, ptr %7, align 8
  %9 = getelementptr inbounds i8, ptr %8, i64 8
  %10 = load i64, ptr %9, align 8
  %11 = icmp eq i64 %10, -1
  br i1 %11, label %12, label %14

12:                                               ; preds = %6
  %13 = tail call i64 @_php_stream_tell(ptr noundef %0) #18
  store i64 %13, ptr %9, align 8
  br label %14

14:                                               ; preds = %12, %6
  %15 = load ptr, ptr %2, align 8
  %.not22 = icmp eq ptr %15, null
  br i1 %.not22, label %._crit_edge, label %.lr.ph

.lr.ph:                                           ; preds = %14, %.lr.ph
  %16 = phi ptr [ %20, %.lr.ph ], [ %15, %14 ]
  %.023 = phi i64 [ %19, %.lr.ph ], [ 0, %14 ]
  tail call void @php_stream_bucket_unlink(ptr noundef nonnull %16) #18
  %17 = getelementptr inbounds i8, ptr %16, i64 32
  %18 = load i64, ptr %17, align 8
  %19 = add i64 %18, %.023
  tail call void @php_stream_bucket_append(ptr noundef %3, ptr noundef nonnull %16) #18
  %20 = load ptr, ptr %2, align 8
  %.not = icmp eq ptr %20, null
  br i1 %.not, label %._crit_edge, label %.lr.ph

._crit_edge:                                      ; preds = %.lr.ph, %14
  %.0.lcssa = phi i64 [ 0, %14 ], [ %19, %.lr.ph ]
  %.not20 = icmp eq ptr %4, null
  br i1 %.not20, label %22, label %21

21:                                               ; preds = %._crit_edge
  store i64 %.0.lcssa, ptr %4, align 8
  br label %22

22:                                               ; preds = %21, %._crit_edge
  %23 = and i32 %5, 2
  %.not21 = icmp eq i32 %23, 0
  br i1 %.not21, label %29, label %24

24:                                               ; preds = %22
  %25 = load i64, ptr %9, align 8
  %26 = load i64, ptr %8, align 8
  %27 = add i64 %26, %25
  %28 = tail call i32 @_php_stream_seek(ptr noundef %0, i64 noundef %27, i32 noundef 0) #18
  br label %29

29:                                               ; preds = %24, %22
  %30 = load i64, ptr %8, align 8
  %31 = add i64 %30, %.0.lcssa
  store i64 %31, ptr %8, align 8
  ret i32 2
}